target datalayout = "e-m:e-p270:32:32-p271:32:32-p272:64:64-i64:64-i128:128-f80:128-n8:16:32:64-S128"
target triple = "x86_64-pc-linux-gnu"

; Function Attrs: mustprogress nounwind uwtable
define hidden noundef ptr @_ZN2os13pd_map_memoryEiPKcmPcmbb(i32 noundef %0, ptr noundef %1, i64 noundef %2, ptr noundef %3, i64 noundef %4, i1 noundef zeroext %5, i1 noundef zeroext %6) #1 align 2 {
  %8 = alloca ptr, align 8
  %9 = alloca i32, align 4
  %10 = alloca ptr, align 8
  %11 = alloca i64, align 8
  %12 = alloca ptr, align 8
  %13 = alloca i64, align 8
  %14 = alloca i8, align 1
  %15 = alloca i8, align 1
  %16 = alloca i32, align 4
  %17 = alloca i32, align 4
  %18 = alloca ptr, align 8
  store i32 %0, ptr %9, align 4
  store ptr %1, ptr %10, align 8
  store i64 %2, ptr %11, align 8
  store ptr %3, ptr %12, align 8
  store i64 %4, ptr %13, align 8
  %19 = zext i1 %5 to i8
  store i8 %19, ptr %14, align 1
  %20 = zext i1 %6 to i8
  store i8 %20, ptr %15, align 1
  store i32 2, ptr %17, align 4
  %21 = load i8, ptr %14, align 1
  %22 = trunc i8 %21 to i1
  br i1 %22, label %23, label %24

23:                                               ; preds = %7
  store i32 1, ptr %16, align 4
  br label %25

24:                                               ; preds = %7
  store i32 3, ptr %16, align 4
  br label %25

25:                                               ; preds = %24, %23
  %26 = load i8, ptr %15, align 1
  %27 = trunc i8 %26 to i1
  br i1 %27, label %28, label %31

28:                                               ; preds = %25
  %29 = load i32, ptr %16, align 4
  %30 = or i32 %29, 4
  store i32 %30, ptr %16, align 4
  br label %31

31:                                               ; preds = %28, %25
  %32 = load ptr, ptr %12, align 8
  %33 = icmp ne ptr %32, null
  br i1 %33, label %34, label %37

34:                                               ; preds = %31
  %35 = load i32, ptr %17, align 4
  %36 = or i32 %35, 16
  store i32 %36, ptr %17, align 4
  br label %37

37:                                               ; preds = %34, %31
  %38 = load ptr, ptr %12, align 8
  %39 = load i64, ptr %13, align 8
  %40 = load i32, ptr %16, align 4
  %41 = load i32, ptr %17, align 4
  %42 = load i32, ptr %9, align 4
  %43 = load i64, ptr %11, align 8
  %44 = call ptr @mmap64(ptr noundef %38, i64 noundef %39, i32 noundef %40, i32 noundef %41, i32 noundef %42, i64 noundef %43) #7
  store ptr %44, ptr %18, align 8
  %45 = load ptr, ptr %18, align 8
  %46 = icmp eq ptr %45, inttoptr (i64 -1 to ptr)
  br i1 %46, label %47, label %48

47:                                               ; preds = %37
  store ptr null, ptr %8, align 8
  br label %50

48:                                               ; preds = %37
  %49 = load ptr, ptr %18, align 8
  store ptr %49, ptr %8, align 8
  br label %50

50:                                               ; preds = %48, %47
  %51 = load ptr, ptr %8, align 8
  ret ptr %51
}