; Function Attrs: mustprogress nounwind uwtable
define hidden noundef ptr @_ZN2os13pd_map_memoryEiPKcmPcmbb(i32 noundef %0, ptr nocapture noundef readnone %1, i64 noundef %2, ptr noundef %3, i64 noundef %4, i1 noundef zeroext %5, i1 noundef zeroext %6) local_unnamed_addr #1 align 2 {
  %. = select i1 %5, i32 1, i32 3
  %8 = or disjoint i32 %., 4
  %.1 = select i1 %6, i32 %8, i32 %.
  %.not = icmp eq ptr %3, null
  %.013 = select i1 %.not, i32 2, i32 18
  %9 = tail call ptr @mmap64(ptr noundef %3, i64 noundef %4, i32 noundef %.1, i32 noundef %.013, i32 noundef %0, i64 noundef %2) #25
  %10 = icmp eq ptr %9, inttoptr (i64 -1 to ptr)
  %.0 = select i1 %10, ptr null, ptr %9
  ret ptr %.0
}